ARM GAS  /var/folders/kr/g9ry2bg56g773797gdtkvvkw0000gn/T//ccod5ZpK.s 			page 1


   1              		.cpu cortex-m0
   2              		.arch armv6s-m
   3              		.fpu softvfp
   4              		.eabi_attribute 20, 1
   5              		.eabi_attribute 21, 1
   6              		.eabi_attribute 23, 3
   7              		.eabi_attribute 24, 1
   8              		.eabi_attribute 25, 1
   9              		.eabi_attribute 26, 1
  10              		.eabi_attribute 30, 1
  11              		.eabi_attribute 34, 0
  12              		.eabi_attribute 18, 4
  13              		.file	"main.c"
  14              		.text
  15              	.Ltext0:
  16              		.cfi_sections	.debug_frame
  17              		.file 1 "Src/main.c"
  18              		.section	.text.LED_init,"ax",%progbits
  19              		.align	1
  20              		.global	LED_init
  21              		.syntax unified
  22              		.code	16
  23              		.thumb_func
  25              	LED_init:
  26              	.LFB43:
   1:Src/main.c    **** 
   2:Src/main.c    **** #include <stdio.h>
   3:Src/main.c    **** #include <stdlib.h>
   4:Src/main.c    **** #include "stm32f0xx.h"
   5:Src/main.c    **** #include "motor.h"
   6:Src/main.c    **** 
   7:Src/main.c    **** /* ------------------------------------------------------------------------------------------------
   8:Src/main.c    ****  *  Global Variable Declarations
   9:Src/main.c    ****  *  -----------------------------------------------------------------------------------------------
  10:Src/main.c    ****  */
  11:Src/main.c    **** volatile uint32_t debouncer;
  12:Src/main.c    **** 
  13:Src/main.c    **** /* ------------------------------------------------------------------------------------------------
  14:Src/main.c    ****  *  Miscellaneous Core Functions
  15:Src/main.c    ****  *  -----------------------------------------------------------------------------------------------
  16:Src/main.c    ****  */
  17:Src/main.c    **** 
  18:Src/main.c    **** void LED_init(void) {
  27              		.loc 1 18 21 view -0
  28              		.cfi_startproc
  29              		@ args = 0, pretend = 0, frame = 0
  30              		@ frame_needed = 0, uses_anonymous_args = 0
  31              		@ link register save eliminated.
  19:Src/main.c    ****     // Initialize PC8 and PC9 for LED's
  20:Src/main.c    ****     RCC->AHBENR |= RCC_AHBENR_GPIOCEN;                                          // Enable periphera
  32              		.loc 1 20 5 view .LVU1
  33              		.loc 1 20 8 is_stmt 0 view .LVU2
  34 0000 0D4A     		ldr	r2, .L2
  35 0002 5169     		ldr	r1, [r2, #20]
  36              		.loc 1 20 17 view .LVU3
  37 0004 8023     		movs	r3, #128
  38 0006 1B03     		lsls	r3, r3, #12
ARM GAS  /var/folders/kr/g9ry2bg56g773797gdtkvvkw0000gn/T//ccod5ZpK.s 			page 2


  39 0008 0B43     		orrs	r3, r1
  40 000a 5361     		str	r3, [r2, #20]
  21:Src/main.c    ****     GPIOC->MODER |= GPIO_MODER_MODER8_0 | GPIO_MODER_MODER9_0;                  // Set PC8 & PC9 to
  41              		.loc 1 21 5 is_stmt 1 view .LVU4
  42              		.loc 1 21 10 is_stmt 0 view .LVU5
  43 000c 0B4B     		ldr	r3, .L2+4
  44 000e 1968     		ldr	r1, [r3]
  45              		.loc 1 21 18 view .LVU6
  46 0010 A022     		movs	r2, #160
  47 0012 D202     		lsls	r2, r2, #11
  48 0014 0A43     		orrs	r2, r1
  49 0016 1A60     		str	r2, [r3]
  22:Src/main.c    ****     GPIOC->OTYPER &= ~(GPIO_OTYPER_OT_8 | GPIO_OTYPER_OT_9);                    // Set to push-pull
  50              		.loc 1 22 5 is_stmt 1 view .LVU7
  51              		.loc 1 22 10 is_stmt 0 view .LVU8
  52 0018 5A68     		ldr	r2, [r3, #4]
  53              		.loc 1 22 19 view .LVU9
  54 001a 0949     		ldr	r1, .L2+8
  55 001c 0A40     		ands	r2, r1
  56 001e 5A60     		str	r2, [r3, #4]
  23:Src/main.c    ****     GPIOC->OSPEEDR &= ~((GPIO_OSPEEDR_OSPEEDR8_0 | GPIO_OSPEEDR_OSPEEDR8_1) |
  57              		.loc 1 23 5 is_stmt 1 view .LVU10
  58              		.loc 1 23 10 is_stmt 0 view .LVU11
  59 0020 9A68     		ldr	r2, [r3, #8]
  60              		.loc 1 23 20 view .LVU12
  61 0022 0848     		ldr	r0, .L2+12
  62 0024 0240     		ands	r2, r0
  63 0026 9A60     		str	r2, [r3, #8]
  24:Src/main.c    ****                         (GPIO_OSPEEDR_OSPEEDR9_0 | GPIO_OSPEEDR_OSPEEDR9_1));   // Set to low speed
  25:Src/main.c    ****     GPIOC->PUPDR &= ~((GPIO_PUPDR_PUPDR8_0 | GPIO_PUPDR_PUPDR8_1) |
  64              		.loc 1 25 5 is_stmt 1 view .LVU13
  65              		.loc 1 25 10 is_stmt 0 view .LVU14
  66 0028 DA68     		ldr	r2, [r3, #12]
  67              		.loc 1 25 18 view .LVU15
  68 002a 0240     		ands	r2, r0
  69 002c DA60     		str	r2, [r3, #12]
  26:Src/main.c    ****                       (GPIO_PUPDR_PUPDR9_0 | GPIO_PUPDR_PUPDR9_1));             // Set to no pull-u
  27:Src/main.c    ****     GPIOC->ODR &= ~(GPIO_ODR_8 | GPIO_ODR_9);                                   // Shut off LED's
  70              		.loc 1 27 5 is_stmt 1 view .LVU16
  71              		.loc 1 27 10 is_stmt 0 view .LVU17
  72 002e 5A69     		ldr	r2, [r3, #20]
  73              		.loc 1 27 16 view .LVU18
  74 0030 0A40     		ands	r2, r1
  75 0032 5A61     		str	r2, [r3, #20]
  28:Src/main.c    **** }
  76              		.loc 1 28 1 view .LVU19
  77              		@ sp needed
  78 0034 7047     		bx	lr
  79              	.L3:
  80 0036 C046     		.align	2
  81              	.L2:
  82 0038 00100240 		.word	1073876992
  83 003c 00080048 		.word	1207961600
  84 0040 FFFCFFFF 		.word	-769
  85 0044 FFFFF0FF 		.word	-983041
  86              		.cfi_endproc
  87              	.LFE43:
ARM GAS  /var/folders/kr/g9ry2bg56g773797gdtkvvkw0000gn/T//ccod5ZpK.s 			page 3


  89              		.section	.text.button_init,"ax",%progbits
  90              		.align	1
  91              		.global	button_init
  92              		.syntax unified
  93              		.code	16
  94              		.thumb_func
  96              	button_init:
  97              	.LFB44:
  29:Src/main.c    **** 
  30:Src/main.c    **** void  button_init(void) {
  98              		.loc 1 30 25 is_stmt 1 view -0
  99              		.cfi_startproc
 100              		@ args = 0, pretend = 0, frame = 0
 101              		@ frame_needed = 0, uses_anonymous_args = 0
 102              		@ link register save eliminated.
  31:Src/main.c    ****     // Initialize PA0 for button input
  32:Src/main.c    ****     RCC->AHBENR |= RCC_AHBENR_GPIOAEN;                                          // Enable periphera
 103              		.loc 1 32 5 view .LVU21
 104              		.loc 1 32 8 is_stmt 0 view .LVU22
 105 0000 0A4A     		ldr	r2, .L5
 106 0002 5169     		ldr	r1, [r2, #20]
 107              		.loc 1 32 17 view .LVU23
 108 0004 8023     		movs	r3, #128
 109 0006 9B02     		lsls	r3, r3, #10
 110 0008 0B43     		orrs	r3, r1
 111 000a 5361     		str	r3, [r2, #20]
  33:Src/main.c    ****     GPIOA->MODER &= ~(GPIO_MODER_MODER0_0 | GPIO_MODER_MODER0_1);               // Set PA0 to input
 112              		.loc 1 33 5 is_stmt 1 view .LVU24
 113              		.loc 1 33 10 is_stmt 0 view .LVU25
 114 000c 9022     		movs	r2, #144
 115 000e D205     		lsls	r2, r2, #23
 116 0010 1368     		ldr	r3, [r2]
 117              		.loc 1 33 18 view .LVU26
 118 0012 0321     		movs	r1, #3
 119 0014 8B43     		bics	r3, r1
 120 0016 1360     		str	r3, [r2]
  34:Src/main.c    ****     GPIOC->OSPEEDR &= ~(GPIO_OSPEEDR_OSPEEDR0_0 | GPIO_OSPEEDR_OSPEEDR0_1);     // Set to low speed
 121              		.loc 1 34 5 is_stmt 1 view .LVU27
 122              		.loc 1 34 10 is_stmt 0 view .LVU28
 123 0018 054B     		ldr	r3, .L5+4
 124 001a 9A68     		ldr	r2, [r3, #8]
 125              		.loc 1 34 20 view .LVU29
 126 001c 8A43     		bics	r2, r1
 127 001e 9A60     		str	r2, [r3, #8]
  35:Src/main.c    ****     GPIOC->PUPDR |= GPIO_PUPDR_PUPDR0_1;                                        // Set to pull-down
 128              		.loc 1 35 5 is_stmt 1 view .LVU30
 129              		.loc 1 35 10 is_stmt 0 view .LVU31
 130 0020 DA68     		ldr	r2, [r3, #12]
 131              		.loc 1 35 18 view .LVU32
 132 0022 0139     		subs	r1, r1, #1
 133 0024 0A43     		orrs	r2, r1
 134 0026 DA60     		str	r2, [r3, #12]
  36:Src/main.c    **** }
 135              		.loc 1 36 1 view .LVU33
 136              		@ sp needed
 137 0028 7047     		bx	lr
 138              	.L6:
ARM GAS  /var/folders/kr/g9ry2bg56g773797gdtkvvkw0000gn/T//ccod5ZpK.s 			page 4


 139 002a C046     		.align	2
 140              	.L5:
 141 002c 00100240 		.word	1073876992
 142 0030 00080048 		.word	1207961600
 143              		.cfi_endproc
 144              	.LFE44:
 146              		.section	.text.HAL_SYSTICK_Callback,"ax",%progbits
 147              		.align	1
 148              		.global	HAL_SYSTICK_Callback
 149              		.syntax unified
 150              		.code	16
 151              		.thumb_func
 153              	HAL_SYSTICK_Callback:
 154              	.LFB45:
  37:Src/main.c    **** 
  38:Src/main.c    **** /* Called by SysTick Interrupt
  39:Src/main.c    ****  * Performs button debouncing, changes wave type on button rising edge
  40:Src/main.c    ****  * Updates frequency output from ADC value
  41:Src/main.c    ****  */
  42:Src/main.c    **** void HAL_SYSTICK_Callback(void) {
 155              		.loc 1 42 33 is_stmt 1 view -0
 156              		.cfi_startproc
 157              		@ args = 0, pretend = 0, frame = 0
 158              		@ frame_needed = 0, uses_anonymous_args = 0
 159              		@ link register save eliminated.
  43:Src/main.c    ****     // Remember that this function is called by the SysTick interrupt
  44:Src/main.c    ****     // You can't call any functions in here that use delay
  45:Src/main.c    **** 
  46:Src/main.c    ****     debouncer = (debouncer << 1);
 160              		.loc 1 46 5 view .LVU35
 161              		.loc 1 46 28 is_stmt 0 view .LVU36
 162 0000 184A     		ldr	r2, .L17
 163 0002 1368     		ldr	r3, [r2]
 164 0004 5B00     		lsls	r3, r3, #1
 165              		.loc 1 46 15 view .LVU37
 166 0006 1360     		str	r3, [r2]
  47:Src/main.c    ****     if(GPIOA->IDR & (1 << 0)) {
 167              		.loc 1 47 5 is_stmt 1 view .LVU38
 168              		.loc 1 47 13 is_stmt 0 view .LVU39
 169 0008 9023     		movs	r3, #144
 170 000a DB05     		lsls	r3, r3, #23
 171 000c 1B69     		ldr	r3, [r3, #16]
 172              		.loc 1 47 7 view .LVU40
 173 000e DB07     		lsls	r3, r3, #31
 174 0010 03D5     		bpl	.L8
  48:Src/main.c    ****         debouncer |= 0x1;
 175              		.loc 1 48 9 is_stmt 1 view .LVU41
 176              		.loc 1 48 19 is_stmt 0 view .LVU42
 177 0012 1368     		ldr	r3, [r2]
 178 0014 0121     		movs	r1, #1
 179 0016 0B43     		orrs	r3, r1
 180 0018 1360     		str	r3, [r2]
 181              	.L8:
  49:Src/main.c    ****     }
  50:Src/main.c    **** 
  51:Src/main.c    ****     if(debouncer == 0x7FFFFFFF) {
 182              		.loc 1 51 5 is_stmt 1 view .LVU43
ARM GAS  /var/folders/kr/g9ry2bg56g773797gdtkvvkw0000gn/T//ccod5ZpK.s 			page 5


 183              		.loc 1 51 18 is_stmt 0 view .LVU44
 184 001a 124B     		ldr	r3, .L17
 185 001c 1A68     		ldr	r2, [r3]
 186              		.loc 1 51 7 view .LVU45
 187 001e 124B     		ldr	r3, .L17+4
 188 0020 9A42     		cmp	r2, r3
 189 0022 00D0     		beq	.L16
 190              	.L7:
  52:Src/main.c    ****         GPIOC->ODR ^= GPIO_ODR_8;
  53:Src/main.c    ****     switch(target_rpm) {
  54:Src/main.c    ****         case 80:
  55:Src/main.c    ****             target_rpm = 50;
  56:Src/main.c    ****             break;
  57:Src/main.c    ****         case 50:
  58:Src/main.c    ****             target_rpm = 81;
  59:Src/main.c    ****             break;
  60:Src/main.c    ****         case 0:
  61:Src/main.c    ****             target_rpm = 80;
  62:Src/main.c    ****             break;
  63:Src/main.c    ****         default:
  64:Src/main.c    ****             target_rpm = 0;
  65:Src/main.c    ****             break;
  66:Src/main.c    ****         }
  67:Src/main.c    ****     }
  68:Src/main.c    **** }
 191              		.loc 1 68 1 view .LVU46
 192              		@ sp needed
 193 0024 7047     		bx	lr
 194              	.L16:
  52:Src/main.c    ****         GPIOC->ODR ^= GPIO_ODR_8;
 195              		.loc 1 52 9 is_stmt 1 view .LVU47
  52:Src/main.c    ****         GPIOC->ODR ^= GPIO_ODR_8;
 196              		.loc 1 52 14 is_stmt 0 view .LVU48
 197 0026 114A     		ldr	r2, .L17+8
 198 0028 5169     		ldr	r1, [r2, #20]
  52:Src/main.c    ****         GPIOC->ODR ^= GPIO_ODR_8;
 199              		.loc 1 52 20 view .LVU49
 200 002a 8023     		movs	r3, #128
 201 002c 5B00     		lsls	r3, r3, #1
 202 002e 4B40     		eors	r3, r1
 203 0030 5361     		str	r3, [r2, #20]
  53:Src/main.c    ****         case 80:
 204              		.loc 1 53 5 is_stmt 1 view .LVU50
 205 0032 0F4B     		ldr	r3, .L17+12
 206 0034 1B88     		ldrh	r3, [r3]
 207 0036 1BB2     		sxth	r3, r3
 208 0038 322B     		cmp	r3, #50
 209 003a 0BD0     		beq	.L10
 210 003c 502B     		cmp	r3, #80
 211 003e 05D0     		beq	.L11
 212 0040 002B     		cmp	r3, #0
 213 0042 0BD0     		beq	.L12
  64:Src/main.c    ****             break;
 214              		.loc 1 64 13 view .LVU51
  64:Src/main.c    ****             break;
 215              		.loc 1 64 24 is_stmt 0 view .LVU52
 216 0044 0A4B     		ldr	r3, .L17+12
ARM GAS  /var/folders/kr/g9ry2bg56g773797gdtkvvkw0000gn/T//ccod5ZpK.s 			page 6


 217 0046 0022     		movs	r2, #0
 218 0048 1A80     		strh	r2, [r3]
  65:Src/main.c    ****         }
 219              		.loc 1 65 13 is_stmt 1 view .LVU53
 220              		.loc 1 68 1 is_stmt 0 view .LVU54
 221 004a EBE7     		b	.L7
 222              	.L11:
  55:Src/main.c    ****             break;
 223              		.loc 1 55 13 is_stmt 1 view .LVU55
  55:Src/main.c    ****             break;
 224              		.loc 1 55 24 is_stmt 0 view .LVU56
 225 004c 084B     		ldr	r3, .L17+12
 226 004e 3222     		movs	r2, #50
 227 0050 1A80     		strh	r2, [r3]
  56:Src/main.c    ****         case 50:
 228              		.loc 1 56 13 is_stmt 1 view .LVU57
 229 0052 E7E7     		b	.L7
 230              	.L10:
  58:Src/main.c    ****             break;
 231              		.loc 1 58 13 view .LVU58
  58:Src/main.c    ****             break;
 232              		.loc 1 58 24 is_stmt 0 view .LVU59
 233 0054 064B     		ldr	r3, .L17+12
 234 0056 5122     		movs	r2, #81
 235 0058 1A80     		strh	r2, [r3]
  59:Src/main.c    ****         case 0:
 236              		.loc 1 59 13 is_stmt 1 view .LVU60
 237 005a E3E7     		b	.L7
 238              	.L12:
  61:Src/main.c    ****             break;
 239              		.loc 1 61 13 view .LVU61
  61:Src/main.c    ****             break;
 240              		.loc 1 61 24 is_stmt 0 view .LVU62
 241 005c 044B     		ldr	r3, .L17+12
 242 005e 5022     		movs	r2, #80
 243 0060 1A80     		strh	r2, [r3]
  62:Src/main.c    ****         default:
 244              		.loc 1 62 13 is_stmt 1 view .LVU63
 245 0062 DFE7     		b	.L7
 246              	.L18:
 247              		.align	2
 248              	.L17:
 249 0064 00000000 		.word	debouncer
 250 0068 FFFFFF7F 		.word	2147483647
 251 006c 00080048 		.word	1207961600
 252 0070 00000000 		.word	target_rpm
 253              		.cfi_endproc
 254              	.LFE45:
 256              		.section	.text.main,"ax",%progbits
 257              		.align	1
 258              		.global	main
 259              		.syntax unified
 260              		.code	16
 261              		.thumb_func
 263              	main:
 264              	.LVL0:
 265              	.LFB46:
ARM GAS  /var/folders/kr/g9ry2bg56g773797gdtkvvkw0000gn/T//ccod5ZpK.s 			page 7


  69:Src/main.c    **** 
  70:Src/main.c    **** /* ------------------------------------------------------------------------------------------------
  71:Src/main.c    ****  * Main Program Code
  72:Src/main.c    ****  *
  73:Src/main.c    ****  * Starts initialization of peripherals
  74:Src/main.c    ****  * Blinks green LED (PC9) in loop as heartbeat
  75:Src/main.c    ****  * ------------------------------------------------------------------------------------------------
  76:Src/main.c    ****  */
  77:Src/main.c    **** volatile uint32_t encoder_count = 0;
  78:Src/main.c    **** 
  79:Src/main.c    **** int main(int argc, char* argv[]) {
 266              		.loc 1 79 34 view -0
 267              		.cfi_startproc
 268              		@ Volatile: function does not return.
 269              		@ args = 0, pretend = 0, frame = 0
 270              		@ frame_needed = 0, uses_anonymous_args = 0
 271              		.loc 1 79 34 is_stmt 0 view .LVU65
 272 0000 10B5     		push	{r4, lr}
 273              	.LCFI0:
 274              		.cfi_def_cfa_offset 8
 275              		.cfi_offset 4, -8
 276              		.cfi_offset 14, -4
  80:Src/main.c    **** 
  81:Src/main.c    ****     debouncer = 0;                          // Initialize global variables
 277              		.loc 1 81 5 is_stmt 1 view .LVU66
 278              		.loc 1 81 15 is_stmt 0 view .LVU67
 279 0002 0D4B     		ldr	r3, .L21
 280 0004 0022     		movs	r2, #0
 281 0006 1A60     		str	r2, [r3]
  82:Src/main.c    **** 	HAL_Init();								// Initialize HAL
 282              		.loc 1 82 2 is_stmt 1 view .LVU68
 283 0008 FFF7FEFF 		bl	HAL_Init
 284              	.LVL1:
  83:Src/main.c    ****     LED_init();                             // Initialize LED's
 285              		.loc 1 83 5 view .LVU69
 286 000c FFF7FEFF 		bl	LED_init
 287              	.LVL2:
  84:Src/main.c    ****     button_init();                          // Initialize button
 288              		.loc 1 84 5 view .LVU70
 289 0010 FFF7FEFF 		bl	button_init
 290              	.LVL3:
  85:Src/main.c    **** 
  86:Src/main.c    ****     motor_init();                           // Initialize motor code
 291              		.loc 1 86 5 view .LVU71
 292 0014 FFF7FEFF 		bl	motor_init
 293              	.LVL4:
 294              	.L20:
  87:Src/main.c    **** 
  88:Src/main.c    ****     while (1) {
 295              		.loc 1 88 5 view .LVU72
  89:Src/main.c    ****         GPIOC->ODR ^= GPIO_ODR_9;           // Toggle green LED (heartbeat)
 296              		.loc 1 89 9 view .LVU73
 297              		.loc 1 89 14 is_stmt 0 view .LVU74
 298 0018 084A     		ldr	r2, .L21+4
 299 001a 5169     		ldr	r1, [r2, #20]
 300              		.loc 1 89 20 view .LVU75
 301 001c 8023     		movs	r3, #128
ARM GAS  /var/folders/kr/g9ry2bg56g773797gdtkvvkw0000gn/T//ccod5ZpK.s 			page 8


 302 001e 9B00     		lsls	r3, r3, #2
 303 0020 4B40     		eors	r3, r1
 304 0022 5361     		str	r3, [r2, #20]
  90:Src/main.c    ****         encoder_count = TIM2->CNT;
 305              		.loc 1 90 9 is_stmt 1 view .LVU76
 306              		.loc 1 90 29 is_stmt 0 view .LVU77
 307 0024 8023     		movs	r3, #128
 308 0026 DB05     		lsls	r3, r3, #23
 309 0028 5A6A     		ldr	r2, [r3, #36]
 310              		.loc 1 90 23 view .LVU78
 311 002a 054B     		ldr	r3, .L21+8
 312 002c 1A60     		str	r2, [r3]
  91:Src/main.c    ****         HAL_Delay(128);                      // Delay 1/8 second
 313              		.loc 1 91 9 is_stmt 1 discriminator 1 view .LVU79
 314 002e 8020     		movs	r0, #128
 315 0030 FFF7FEFF 		bl	HAL_Delay
 316              	.LVL5:
  88:Src/main.c    ****         GPIOC->ODR ^= GPIO_ODR_9;           // Toggle green LED (heartbeat)
 317              		.loc 1 88 11 view .LVU80
 318 0034 F0E7     		b	.L20
 319              	.L22:
 320 0036 C046     		.align	2
 321              	.L21:
 322 0038 00000000 		.word	debouncer
 323 003c 00080048 		.word	1207961600
 324 0040 00000000 		.word	encoder_count
 325              		.cfi_endproc
 326              	.LFE46:
 328              		.global	encoder_count
 329              		.section	.bss.encoder_count,"aw",%nobits
 330              		.align	2
 333              	encoder_count:
 334 0000 00000000 		.space	4
 335              		.global	debouncer
 336              		.section	.bss.debouncer,"aw",%nobits
 337              		.align	2
 340              	debouncer:
 341 0000 00000000 		.space	4
 342              		.text
 343              	.Letext0:
 344              		.file 2 "/Applications/ArmGNUToolchain/13.2.Rel1/arm-none-eabi/arm-none-eabi/include/machine/_defa
 345              		.file 3 "/Applications/ArmGNUToolchain/13.2.Rel1/arm-none-eabi/arm-none-eabi/include/sys/_stdint.h
 346              		.file 4 "Drivers/CMSIS/Device/ST/STM32F0xx/Include/stm32f072xb.h"
 347              		.file 5 "Drivers/STM32F0xx_HAL_Driver/Inc/stm32f0xx_hal_def.h"
 348              		.file 6 "Inc/motor.h"
 349              		.file 7 "Drivers/STM32F0xx_HAL_Driver/Inc/stm32f0xx_hal.h"
ARM GAS  /var/folders/kr/g9ry2bg56g773797gdtkvvkw0000gn/T//ccod5ZpK.s 			page 9

